; Function Attrs: mustprogress nofree nounwind willreturn memory(read, inaccessiblemem: none) uwtable
define noundef zeroext i1 @_ZNK5arrow8internal16PlatformFilenameneERKS1_(ptr noundef nonnull readonly align 8 captures(none) dereferenceable(8) %0, ptr noundef nonnull readonly align 8 captures(none) dereferenceable(8) %1) local_unnamed_addr #11 align 2 personality ptr @__gxx_personality_v0 {
  %3 = load ptr, ptr %0, align 8, !tbaa !40
  %4 = load ptr, ptr %1, align 8, !tbaa !40
  %5 = getelementptr inbounds nuw i8, ptr %3, i64 8
  %6 = load i64, ptr %5, align 8, !tbaa !14
  %7 = getelementptr inbounds nuw i8, ptr %4, i64 8
  %8 = load i64, ptr %7, align 8, !tbaa !14
  %9 = icmp eq i64 %6, %8
  br i1 %9, label %10, label %_ZStneIcSt11char_traitsIcESaIcEEbRKNSt7__cxx1112basic_stringIT_T0_T1_EESA_.exit

10:                                               ; preds = %2
  %11 = icmp eq i64 %6, 0
  br i1 %11, label %_ZStneIcSt11char_traitsIcESaIcEEbRKNSt7__cxx1112basic_stringIT_T0_T1_EESA_.exit, label %12

12:                                               ; preds = %10
  %13 = load ptr, ptr %4, align 8, !tbaa !11
  %14 = load ptr, ptr %3, align 8, !tbaa !11
  %bcmp.i.i = tail call i32 @bcmp(ptr %14, ptr %13, i64 %6)
  %15 = icmp ne i32 %bcmp.i.i, 0
  br label %_ZStneIcSt11char_traitsIcESaIcEEbRKNSt7__cxx1112basic_stringIT_T0_T1_EESA_.exit

_ZStneIcSt11char_traitsIcESaIcEEbRKNSt7__cxx1112basic_stringIT_T0_T1_EESA_.exit: ; preds = %2, %10, %12
  %16 = phi i1 [ true, %2 ], [ %15, %12 ], [ false, %10 ]
  ret i1 %16
}